target datalayout = "e-m:e-p270:32:32-p271:32:32-p272:64:64-i64:64-i128:128-f80:128-n8:16:32:64-S128"
target triple = "x86_64-pc-linux-gnu"

%struct.PJ_LP = type { double, double }
%struct.PJconsts = type { ptr, ptr, ptr, ptr, ptr, ptr, ptr, ptr, ptr, ptr, ptr, ptr, i32, ptr, ptr, ptr, ptr, ptr, ptr, ptr, ptr, double, double, double, double, double, double, double, double, double, double, double, double, double, double, double, double, double, double, double, double, double, double, i32, i32, i32, i32, i32, i32, i32, i32, i32, i32, i32, ptr, ptr, ptr, ptr, ptr, ptr, double, double, double, double, double, double, double, double, double, double, double, i32, [7 x double], i32, ptr, ptr, double, double, i32, [4 x i8], %"class.std::shared_ptr", i8, double, i8, %"class.std::__cxx11::basic_string", %"class.std::__cxx11::basic_string", %"class.std::__cxx11::basic_string", i8, %"class.std::vector", i32, %"class.std::vector.3", i32, i8, i8, i8, ptr }
%"class.std::shared_ptr" = type { %"class.std::__shared_ptr" }
%"class.std::__shared_ptr" = type { ptr, %"class.std::__shared_count" }
%"class.std::__shared_count" = type { ptr }
%"class.std::__cxx11::basic_string" = type { %"struct.std::__cxx11::basic_string<char>::_Alloc_hider", i64, %union.anon }
%"struct.std::__cxx11::basic_string<char>::_Alloc_hider" = type { ptr }
%union.anon = type { i64, [8 x i8] }
%"class.std::vector" = type { %"struct.std::_Vector_base" }
%"struct.std::_Vector_base" = type { %"struct.std::_Vector_base<osgeo::proj::operation::GridDescription, std::allocator<osgeo::proj::operation::GridDescription>>::_Vector_impl" }
%"struct.std::_Vector_base<osgeo::proj::operation::GridDescription, std::allocator<osgeo::proj::operation::GridDescription>>::_Vector_impl" = type { %"struct.std::_Vector_base<osgeo::proj::operation::GridDescription, std::allocator<osgeo::proj::operation::GridDescription>>::_Vector_impl_data" }
%"struct.std::_Vector_base<osgeo::proj::operation::GridDescription, std::allocator<osgeo::proj::operation::GridDescription>>::_Vector_impl_data" = type { ptr, ptr, ptr }
%"class.std::vector.3" = type { %"struct.std::_Vector_base.4" }
%"struct.std::_Vector_base.4" = type { %"struct.std::_Vector_base<PJCoordOperation, std::allocator<PJCoordOperation>>::_Vector_impl" }
%"struct.std::_Vector_base<PJCoordOperation, std::allocator<PJCoordOperation>>::_Vector_impl" = type { %"struct.std::_Vector_base<PJCoordOperation, std::allocator<PJCoordOperation>>::_Vector_impl_data" }
%"struct.std::_Vector_base<PJCoordOperation, std::allocator<PJCoordOperation>>::_Vector_impl_data" = type { ptr, ptr, ptr }
%struct.PJ_XY = type { double, double }
%"struct.pj_igh_ns::pj_igh_data" = type { [12 x ptr], double }

; Function Attrs: mustprogress uwtable
define internal { double, double } @_ZL13igh_s_forward5PJ_LPP8PJconsts(double %0, double %1, ptr noundef %2) #0 {
  %4 = alloca %struct.PJ_XY, align 8
  %5 = alloca %struct.PJ_LP, align 8
  %6 = alloca ptr, align 8
  %7 = alloca ptr, align 8
  %8 = alloca i32, align 4
  %9 = alloca %struct.PJ_XY, align 8
  %10 = alloca %struct.PJ_LP, align 8
  %11 = getelementptr inbounds nuw { double, double }, ptr %5, i32 0, i32 0
  store double %0, ptr %11, align 8
  %12 = getelementptr inbounds nuw { double, double }, ptr %5, i32 0, i32 1
  store double %1, ptr %12, align 8
  store ptr %2, ptr %6, align 8, !tbaa !3
  call void @llvm.lifetime.start.p0(i64 8, ptr %7) #7
  %13 = load ptr, ptr %6, align 8, !tbaa !3
  %14 = getelementptr inbounds nuw %struct.PJconsts, ptr %13, i32 0, i32 11
  %15 = load ptr, ptr %14, align 8, !tbaa !43
  store ptr %15, ptr %7, align 8, !tbaa !41
  call void @llvm.lifetime.start.p0(i64 4, ptr %8) #7
  %16 = getelementptr inbounds nuw %struct.PJ_LP, ptr %5, i32 0, i32 1
  %17 = load double, ptr %16, align 8, !tbaa !66
  %18 = fcmp oge double %17, 0x3FE6C069E29BDA5B
  br i1 %18, label %19, label %24

19:                                               ; preds = %3
  %20 = getelementptr inbounds nuw %struct.PJ_LP, ptr %5, i32 0, i32 0
  %21 = load double, ptr %20, align 8, !tbaa !64
  %22 = fcmp ole double %21, 0xBFE657184AE74487
  %23 = select i1 %22, i32 1, i32 2
  store i32 %23, ptr %8, align 4, !tbaa !55
  br label %77

24:                                               ; preds = %3
  %25 = getelementptr inbounds nuw %struct.PJ_LP, ptr %5, i32 0, i32 1
  %26 = load double, ptr %25, align 8, !tbaa !66
  %27 = fcmp oge double %26, 0.000000e+00
  br i1 %27, label %28, label %33

28:                                               ; preds = %24
  %29 = getelementptr inbounds nuw %struct.PJ_LP, ptr %5, i32 0, i32 0
  %30 = load double, ptr %29, align 8, !tbaa !64
  %31 = fcmp ole double %30, 0xBFE657184AE74487
  %32 = select i1 %31, i32 3, i32 4
  store i32 %32, ptr %8, align 4, !tbaa !55
  br label %76

33:                                               ; preds = %24
  %34 = getelementptr inbounds nuw %struct.PJ_LP, ptr %5, i32 0, i32 1
  %35 = load double, ptr %34, align 8, !tbaa !66
  %36 = fcmp oge double %35, 0xBFE6C069E29BDA5B
  br i1 %36, label %37, label %56

37:                                               ; preds = %33
  %38 = getelementptr inbounds nuw %struct.PJ_LP, ptr %5, i32 0, i32 0
  %39 = load double, ptr %38, align 8, !tbaa !64
  %40 = fcmp ole double %39, 0xBFFBECDE5DA115A9
  br i1 %40, label %41, label %42

41:                                               ; preds = %37
  store i32 5, ptr %8, align 4, !tbaa !55
  br label %55

42:                                               ; preds = %37
  %43 = getelementptr inbounds nuw %struct.PJ_LP, ptr %5, i32 0, i32 0
  %44 = load double, ptr %43, align 8, !tbaa !64
  %45 = fcmp ole double %44, 0xBFD657184AE74487
  br i1 %45, label %46, label %47

46:                                               ; preds = %42
  store i32 6, ptr %8, align 4, !tbaa !55
  br label %54

47:                                               ; preds = %42
  %48 = getelementptr inbounds nuw %struct.PJ_LP, ptr %5, i32 0, i32 0
  %49 = load double, ptr %48, align 8, !tbaa !64
  %50 = fcmp ole double %49, 0x3FF657184AE74487
  br i1 %50, label %51, label %52

51:                                               ; preds = %47
  store i32 7, ptr %8, align 4, !tbaa !55
  br label %53

52:                                               ; preds = %47
  store i32 8, ptr %8, align 4, !tbaa !55
  br label %53

53:                                               ; preds = %52, %51
  br label %54

54:                                               ; preds = %53, %46
  br label %55

55:                                               ; preds = %54, %41
  br label %75

56:                                               ; preds = %33
  %57 = getelementptr inbounds nuw %struct.PJ_LP, ptr %5, i32 0, i32 0
  %58 = load double, ptr %57, align 8, !tbaa !64
  %59 = fcmp ole double %58, 0xBFFBECDE5DA115A9
  br i1 %59, label %60, label %61

60:                                               ; preds = %56
  store i32 9, ptr %8, align 4, !tbaa !55
  br label %74

61:                                               ; preds = %56
  %62 = getelementptr inbounds nuw %struct.PJ_LP, ptr %5, i32 0, i32 0
  %63 = load double, ptr %62, align 8, !tbaa !64
  %64 = fcmp ole double %63, 0xBFD657184AE74487
  br i1 %64, label %65, label %66

65:                                               ; preds = %61
  store i32 10, ptr %8, align 4, !tbaa !55
  br label %73

66:                                               ; preds = %61
  %67 = getelementptr inbounds nuw %struct.PJ_LP, ptr %5, i32 0, i32 0
  %68 = load double, ptr %67, align 8, !tbaa !64
  %69 = fcmp ole double %68, 0x3FF657184AE74487
  br i1 %69, label %70, label %71

70:                                               ; preds = %66
  store i32 11, ptr %8, align 4, !tbaa !55
  br label %72

71:                                               ; preds = %66
  store i32 12, ptr %8, align 4, !tbaa !55
  br label %72

72:                                               ; preds = %71, %70
  br label %73

73:                                               ; preds = %72, %65
  br label %74

74:                                               ; preds = %73, %60
  br label %75

75:                                               ; preds = %74, %55
  br label %76

76:                                               ; preds = %75, %28
  br label %77

77:                                               ; preds = %76, %19
  %78 = load ptr, ptr %7, align 8, !tbaa !41
  %79 = getelementptr inbounds nuw %"struct.pj_igh_ns::pj_igh_data", ptr %78, i32 0, i32 0
  %80 = load i32, ptr %8, align 4, !tbaa !55
  %81 = sub nsw i32 %80, 1
  %82 = sext i32 %81 to i64
  %83 = getelementptr inbounds [12 x ptr], ptr %79, i64 0, i64 %82
  %84 = load ptr, ptr %83, align 8, !tbaa !3
  %85 = getelementptr inbounds nuw %struct.PJconsts, ptr %84, i32 0, i32 60
  %86 = load double, ptr %85, align 8, !tbaa !59
  %87 = getelementptr inbounds nuw %struct.PJ_LP, ptr %5, i32 0, i32 0
  %88 = load double, ptr %87, align 8, !tbaa !64
  %89 = fsub double %88, %86
  store double %89, ptr %87, align 8, !tbaa !64
  call void @llvm.lifetime.start.p0(i64 16, ptr %9) #7
  %90 = load ptr, ptr %7, align 8, !tbaa !41
  %91 = getelementptr inbounds nuw %"struct.pj_igh_ns::pj_igh_data", ptr %90, i32 0, i32 0
  %92 = load i32, ptr %8, align 4, !tbaa !55
  %93 = sub nsw i32 %92, 1
  %94 = sext i32 %93 to i64
  %95 = getelementptr inbounds [12 x ptr], ptr %91, i64 0, i64 %94
  %96 = load ptr, ptr %95, align 8, !tbaa !3
  %97 = getelementptr inbounds nuw %struct.PJconsts, ptr %96, i32 0, i32 13
  %98 = load ptr, ptr %97, align 8, !tbaa !44
  call void @llvm.memcpy.p0.p0.i64(ptr align 8 %10, ptr align 8 %5, i64 16, i1 false), !tbaa.struct !45
  %99 = load ptr, ptr %7, align 8, !tbaa !41
  %100 = getelementptr inbounds nuw %"struct.pj_igh_ns::pj_igh_data", ptr %99, i32 0, i32 0
  %101 = load i32, ptr %8, align 4, !tbaa !55
  %102 = sub nsw i32 %101, 1
  %103 = sext i32 %102 to i64
  %104 = getelementptr inbounds [12 x ptr], ptr %100, i64 0, i64 %103
  %105 = load ptr, ptr %104, align 8, !tbaa !3
  %106 = getelementptr inbounds nuw { double, double }, ptr %10, i32 0, i32 0
  %107 = load double, ptr %106, align 8
  %108 = getelementptr inbounds nuw { double, double }, ptr %10, i32 0, i32 1
  %109 = load double, ptr %108, align 8
  %110 = call { double, double } %98(double %107, double %109, ptr noundef %105)
  %111 = getelementptr inbounds nuw { double, double }, ptr %9, i32 0, i32 0
  %112 = extractvalue { double, double } %110, 0
  store double %112, ptr %111, align 8
  %113 = getelementptr inbounds nuw { double, double }, ptr %9, i32 0, i32 1
  %114 = extractvalue { double, double } %110, 1
  store double %114, ptr %113, align 8
  call void @llvm.memcpy.p0.p0.i64(ptr align 8 %4, ptr align 8 %9, i64 16, i1 false), !tbaa.struct !45
  call void @llvm.lifetime.end.p0(i64 16, ptr %9) #7
  %115 = load ptr, ptr %7, align 8, !tbaa !41
  %116 = getelementptr inbounds nuw %"struct.pj_igh_ns::pj_igh_data", ptr %115, i32 0, i32 0
  %117 = load i32, ptr %8, align 4, !tbaa !55
  %118 = sub nsw i32 %117, 1
  %119 = sext i32 %118 to i64
  %120 = getelementptr inbounds [12 x ptr], ptr %116, i64 0, i64 %119
  %121 = load ptr, ptr %120, align 8, !tbaa !3
  %122 = getelementptr inbounds nuw %struct.PJconsts, ptr %121, i32 0, i32 62
  %123 = load double, ptr %122, align 8, !tbaa !58
  %124 = getelementptr inbounds nuw %struct.PJ_XY, ptr %4, i32 0, i32 0
  %125 = load double, ptr %124, align 8, !tbaa !62
  %126 = fadd double %125, %123
  store double %126, ptr %124, align 8, !tbaa !62
  %127 = load ptr, ptr %7, align 8, !tbaa !41
  %128 = getelementptr inbounds nuw %"struct.pj_igh_ns::pj_igh_data", ptr %127, i32 0, i32 0
  %129 = load i32, ptr %8, align 4, !tbaa !55
  %130 = sub nsw i32 %129, 1
  %131 = sext i32 %130 to i64
  %132 = getelementptr inbounds [12 x ptr], ptr %128, i64 0, i64 %131
  %133 = load ptr, ptr %132, align 8, !tbaa !3
  %134 = getelementptr inbounds nuw %struct.PJconsts, ptr %133, i32 0, i32 63
  %135 = load double, ptr %134, align 8, !tbaa !51
  %136 = getelementptr inbounds nuw %struct.PJ_XY, ptr %4, i32 0, i32 1
  %137 = load double, ptr %136, align 8, !tbaa !47
  %138 = fadd double %137, %135
  store double %138, ptr %136, align 8, !tbaa !47
  call void @llvm.lifetime.end.p0(i64 4, ptr %8) #7
  call void @llvm.lifetime.end.p0(i64 8, ptr %7) #7
  %139 = load { double, double }, ptr %4, align 8
  ret { double, double } %139
}