; Function Attrs: mustprogress uwtable
define internal { double, double } @_ZL13igh_s_forward5PJ_LPP8PJconsts(double %0, double %1, ptr noundef readonly captures(none) %2) #0 {
  %4 = getelementptr inbounds nuw i8, ptr %2, i64 88
  %5 = load ptr, ptr %4, align 8, !tbaa !40
  %6 = fcmp ult double %1, 0x3FE6C069E29BDA5B
  br i1 %6, label %10, label %7

7:                                                ; preds = %3
  %8 = fcmp ole double %0, 0xBFE657184AE74487
  %9 = select i1 %8, i64 1, i64 2
  br label %28

10:                                               ; preds = %3
  %11 = fcmp ult double %1, 0.000000e+00
  br i1 %11, label %15, label %12

12:                                               ; preds = %10
  %13 = fcmp ole double %0, 0xBFE657184AE74487
  %14 = select i1 %13, i64 3, i64 4
  br label %28

15:                                               ; preds = %10
  %16 = fcmp ult double %1, 0xBFE6C069E29BDA5B
  %17 = fcmp ugt double %0, 0xBFFBECDE5DA115A9
  br i1 %16, label %23, label %18

18:                                               ; preds = %15
  br i1 %17, label %19, label %28

19:                                               ; preds = %18
  %20 = fcmp ugt double %0, 0xBFD657184AE74487
  br i1 %20, label %21, label %28

21:                                               ; preds = %19
  %22 = fcmp ugt double %0, 0x3FF657184AE74487
  %. = select i1 %22, i64 8, i64 7
  br label %28

23:                                               ; preds = %15
  br i1 %17, label %24, label %28

24:                                               ; preds = %23
  %25 = fcmp ugt double %0, 0xBFD657184AE74487
  br i1 %25, label %26, label %28

26:                                               ; preds = %24
  %27 = fcmp ugt double %0, 0x3FF657184AE74487
  %.26 = select i1 %27, i64 12, i64 11
  br label %28

28:                                               ; preds = %26, %24, %23, %21, %19, %18, %12, %7
  %.0 = phi i64 [ %9, %7 ], [ %14, %12 ], [ 5, %18 ], [ 6, %19 ], [ %., %21 ], [ 9, %23 ], [ 10, %24 ], [ %.26, %26 ]
  %29 = add nuw nsw i64 %.0, 4294967295
  %30 = and i64 %29, 4294967295
  %31 = getelementptr inbounds nuw [12 x ptr], ptr %5, i64 0, i64 %30
  %32 = load ptr, ptr %31, align 8, !tbaa !42
  %33 = getelementptr inbounds nuw i8, ptr %32, i64 440
  %34 = load double, ptr %33, align 8, !tbaa !46
  %35 = fsub double %0, %34
  %36 = getelementptr inbounds nuw i8, ptr %32, i64 104
  %37 = load ptr, ptr %36, align 8, !tbaa !50
  %38 = tail call { double, double } %37(double %35, double %1, ptr noundef %32)
  %39 = extractvalue { double, double } %38, 0
  %40 = extractvalue { double, double } %38, 1
  %41 = load ptr, ptr %31, align 8, !tbaa !42
  %42 = getelementptr inbounds nuw i8, ptr %41, i64 456
  %43 = load double, ptr %42, align 8, !tbaa !44
  %44 = fadd double %39, %43
  %45 = getelementptr inbounds nuw i8, ptr %41, i64 464
  %46 = load double, ptr %45, align 8, !tbaa !45
  %47 = fadd double %40, %46
  %.fca.0.insert = insertvalue { double, double } poison, double %44, 0
  %.fca.1.insert = insertvalue { double, double } %.fca.0.insert, double %47, 1
  ret { double, double } %.fca.1.insert
}